; Function Attrs: nounwind uwtable
define internal noundef i32 @obj_extra_data_set(ptr noundef captures(none) %0, ptr noundef %1, ptr readnone captures(none) %2) #0 {
  %4 = getelementptr i8, ptr %0, i64 8
  %.val.i = load ptr, ptr %4, align 8, !tbaa !14
  %5 = getelementptr inbounds nuw i8, ptr %.val.i, i64 32
  %6 = load i64, ptr %5, align 8, !tbaa !28
  %7 = getelementptr i8, ptr %0, i64 %6
  %8 = load ptr, ptr %7, align 8, !tbaa !6
  %.not = icmp eq ptr %8, null
  br i1 %.not, label %Py_DECREF.exit, label %9

9:                                                ; preds = %3
  store ptr null, ptr %7, align 8, !tbaa !6
  %10 = load i32, ptr %8, align 8, !tbaa !3
  %.not.i = icmp sgt i32 %10, -1
  br i1 %.not.i, label %11, label %Py_DECREF.exit

11:                                               ; preds = %9
  %12 = add nsw i32 %10, -1
  store i32 %12, ptr %8, align 8, !tbaa !3
  %13 = icmp eq i32 %12, 0
  br i1 %13, label %14, label %Py_DECREF.exit

14:                                               ; preds = %11
  tail call void @_Py_Dealloc(ptr noundef nonnull %8) #8
  br label %Py_DECREF.exit

Py_DECREF.exit:                                   ; preds = %14, %11, %9, %3
  %.not10 = icmp eq ptr %1, null
  br i1 %.not10, label %20, label %15

15:                                               ; preds = %Py_DECREF.exit
  %16 = load i32, ptr %1, align 8, !tbaa !3
  %17 = icmp slt i32 %16, 0
  br i1 %17, label %_Py_NewRef.exit, label %18

18:                                               ; preds = %15
  %19 = add nuw i32 %16, 1
  store i32 %19, ptr %1, align 8, !tbaa !3
  br label %_Py_NewRef.exit

_Py_NewRef.exit:                                  ; preds = %15, %18
  store ptr %1, ptr %7, align 8, !tbaa !6
  br label %20

20:                                               ; preds = %_Py_NewRef.exit, %Py_DECREF.exit
  ret i32 0
}